; Function Attrs: mustprogress uwtable
define void @_ZN3nix10AutoDeleteC2ERKNSt7__cxx1112basic_stringIcSt11char_traitsIcESaIcEEEb(ptr noundef nonnull align 8 dereferenceable(34) %0, ptr noundef nonnull align 8 dereferenceable(32) %1, i1 noundef zeroext %2) unnamed_addr #2 align 2 {
  %4 = zext i1 %2 to i8
  tail call void @_ZNSt7__cxx1112basic_stringIcSt11char_traitsIcESaIcEEC2ERKS4_(ptr noundef nonnull align 8 dereferenceable(32) %0, ptr noundef nonnull align 8 dereferenceable(32) %1)
  %5 = getelementptr inbounds i8, ptr %0, i64 32
  store i8 1, ptr %5, align 8
  %6 = getelementptr inbounds i8, ptr %0, i64 33
  store i8 %4, ptr %6, align 1
  ret void
}